; Function Attrs: nofree norecurse nosync nounwind memory(argmem: read) uwtable
define { <2 x float>, <2 x float> } @b2ComputePolygonAABB(ptr noundef readonly captures(none) %0, <2 x float> %1, <2 x float> %2) local_unnamed_addr #9 {
  %4 = load <2 x float>, ptr %0, align 4
  %.sroa.3.8.vec.extract.i = extractelement <2 x float> %2, i64 0
  %.sroa.0.0.vec.extract.i = extractelement <2 x float> %4, i64 0
  %5 = fmul <2 x float> %2, %4
  %6 = extractelement <2 x float> %5, i64 0
  %.sroa.3.12.vec.extract.i = extractelement <2 x float> %2, i64 1
  %.sroa.0.4.vec.extract.i = extractelement <2 x float> %4, i64 1
  %7 = fmul float %.sroa.3.12.vec.extract.i, %.sroa.0.4.vec.extract.i
  %8 = fsub float %6, %7
  %.sroa.06.0.vec.extract.i = extractelement <2 x float> %1, i64 0
  %9 = fadd float %.sroa.06.0.vec.extract.i, %8
  %10 = fmul float %.sroa.3.12.vec.extract.i, %.sroa.0.0.vec.extract.i
  %11 = fmul float %.sroa.3.8.vec.extract.i, %.sroa.0.4.vec.extract.i
  %12 = fadd float %10, %11
  %.sroa.06.4.vec.extract.i = extractelement <2 x float> %1, i64 1
  %13 = fadd float %.sroa.06.4.vec.extract.i, %12
  %.sroa.011.0.vec.insert.i = insertelement <2 x float> poison, float %9, i64 0
  %.sroa.011.4.vec.insert.i = insertelement <2 x float> %.sroa.011.0.vec.insert.i, float %13, i64 1
  %14 = getelementptr inbounds nuw i8, ptr %0, i64 140
  %15 = load i32, ptr %14, align 4, !tbaa !18
  %16 = icmp sgt i32 %15, 1
  br i1 %16, label %.lr.ph.preheader, label %._crit_edge

.lr.ph.preheader:                                 ; preds = %3
  %wide.trip.count = zext nneg i32 %15 to i64
  br label %.lr.ph

._crit_edge:                                      ; preds = %.lr.ph, %3
  %.sroa.011.0.lcssa = phi <2 x float> [ %.sroa.011.4.vec.insert.i, %3 ], [ %.sroa.02.4.vec.insert.i52, %.lr.ph ]
  %.sroa.014.0.lcssa = phi <2 x float> [ %.sroa.011.4.vec.insert.i, %3 ], [ %.sroa.02.4.vec.insert.i46, %.lr.ph ]
  %17 = getelementptr inbounds nuw i8, ptr %0, i64 136
  %18 = load float, ptr %17, align 4, !tbaa !20
  %.sroa.01.0.vec.extract.i = extractelement <2 x float> %.sroa.014.0.lcssa, i64 0
  %19 = fsub float %.sroa.01.0.vec.extract.i, %18
  %.sroa.02.0.vec.insert.i = insertelement <2 x float> poison, float %19, i64 0
  %.sroa.01.4.vec.extract.i = extractelement <2 x float> %.sroa.014.0.lcssa, i64 1
  %20 = fsub float %.sroa.01.4.vec.extract.i, %18
  %.sroa.02.4.vec.insert.i = insertelement <2 x float> %.sroa.02.0.vec.insert.i, float %20, i64 1
  %.sroa.01.0.vec.extract.i27 = extractelement <2 x float> %.sroa.011.0.lcssa, i64 0
  %21 = fadd float %.sroa.01.0.vec.extract.i27, %18
  %.sroa.02.0.vec.insert.i29 = insertelement <2 x float> poison, float %21, i64 0
  %.sroa.01.4.vec.extract.i30 = extractelement <2 x float> %.sroa.011.0.lcssa, i64 1
  %22 = fadd float %.sroa.01.4.vec.extract.i30, %18
  %.sroa.02.4.vec.insert.i32 = insertelement <2 x float> %.sroa.02.0.vec.insert.i29, float %22, i64 1
  %.fca.0.insert = insertvalue { <2 x float>, <2 x float> } poison, <2 x float> %.sroa.02.4.vec.insert.i, 0
  %.fca.1.insert = insertvalue { <2 x float>, <2 x float> } %.fca.0.insert, <2 x float> %.sroa.02.4.vec.insert.i32, 1
  ret { <2 x float>, <2 x float> } %.fca.1.insert

.lr.ph:                                           ; preds = %.lr.ph.preheader, %.lr.ph
  %indvars.iv = phi i64 [ 1, %.lr.ph.preheader ], [ %indvars.iv.next, %.lr.ph ]
  %.sroa.014.055 = phi <2 x float> [ %.sroa.011.4.vec.insert.i, %.lr.ph.preheader ], [ %.sroa.02.4.vec.insert.i46, %.lr.ph ]
  %.sroa.011.054 = phi <2 x float> [ %.sroa.011.4.vec.insert.i, %.lr.ph.preheader ], [ %.sroa.02.4.vec.insert.i52, %.lr.ph ]
  %23 = getelementptr inbounds nuw [8 x %struct.b2Vec2], ptr %0, i64 0, i64 %indvars.iv
  %24 = load <2 x float>, ptr %23, align 4
  %.sroa.0.0.vec.extract.i34 = extractelement <2 x float> %24, i64 0
  %25 = fmul <2 x float> %2, %24
  %26 = extractelement <2 x float> %25, i64 0
  %.sroa.0.4.vec.extract.i36 = extractelement <2 x float> %24, i64 1
  %27 = fmul float %.sroa.3.12.vec.extract.i, %.sroa.0.4.vec.extract.i36
  %28 = fsub float %26, %27
  %29 = fadd float %.sroa.06.0.vec.extract.i, %28
  %30 = fmul float %.sroa.3.12.vec.extract.i, %.sroa.0.0.vec.extract.i34
  %31 = fmul float %.sroa.3.8.vec.extract.i, %.sroa.0.4.vec.extract.i36
  %32 = fadd float %30, %31
  %33 = fadd float %.sroa.06.4.vec.extract.i, %32
  %.sroa.01.0.vec.extract.i41 = extractelement <2 x float> %.sroa.014.055, i64 0
  %34 = fcmp olt float %.sroa.01.0.vec.extract.i41, %29
  %35 = select i1 %34, float %.sroa.01.0.vec.extract.i41, float %29
  %.sroa.02.0.vec.insert.i43 = insertelement <2 x float> poison, float %35, i64 0
  %.sroa.01.4.vec.extract.i44 = extractelement <2 x float> %.sroa.014.055, i64 1
  %36 = fcmp olt float %.sroa.01.4.vec.extract.i44, %33
  %37 = select i1 %36, float %.sroa.01.4.vec.extract.i44, float %33
  %.sroa.02.4.vec.insert.i46 = insertelement <2 x float> %.sroa.02.0.vec.insert.i43, float %37, i64 1
  %.sroa.01.0.vec.extract.i47 = extractelement <2 x float> %.sroa.011.054, i64 0
  %38 = fcmp ogt float %.sroa.01.0.vec.extract.i47, %29
  %39 = select i1 %38, float %.sroa.01.0.vec.extract.i47, float %29
  %.sroa.02.0.vec.insert.i49 = insertelement <2 x float> poison, float %39, i64 0
  %.sroa.01.4.vec.extract.i50 = extractelement <2 x float> %.sroa.011.054, i64 1
  %40 = fcmp ogt float %.sroa.01.4.vec.extract.i50, %33
  %41 = select i1 %40, float %.sroa.01.4.vec.extract.i50, float %33
  %.sroa.02.4.vec.insert.i52 = insertelement <2 x float> %.sroa.02.0.vec.insert.i49, float %41, i64 1
  %indvars.iv.next = add nuw nsw i64 %indvars.iv, 1
  %exitcond.not = icmp eq i64 %indvars.iv.next, %wide.trip.count
  br i1 %exitcond.not, label %._crit_edge, label %.lr.ph, !llvm.loop !53
}